#include <math.h>
#include <stdio.h>
#include <stdlib.h>
#include <string.h>

int main()
{
    char a[501]={'\0'},b[501]={'\0'};
	double n;
	scanf("%lf",&n);
	scanf("%s",a);
	scanf("%s",b);
	int x,y;
	x=strlen(a);
	y=strlen(b);
	if(x!=y)
	{
		printf("error");
	}
	else
	{
		int count=0,so=0;
		double rate;
		for(int i=0;i<x;i++)
		{
			if(a[i]==b[i])
			{
				count++;
			}
			if( (a[i]!='A' && a[i]!='T' && a[i]!='C' && a[i]!='G') || (b[i]!='A' && b[i]!='T' && b[i]!='C' && b[i]!='G') )
			{
				printf("error");
				so=100;
				break;
			}
		}
		if(so!=100)
		{
		    rate=count*1.0/x;
		    if(rate>n)
			{
			    printf("yes");
			}
		    else 
			{
		    	printf("no");
			}
		}
	}
    return 0;
}
